target datalayout = "e-m:e-p270:32:32-p271:32:32-p272:64:64-i64:64-i128:128-f80:128-n8:16:32:64-S128"
target triple = "x86_64-pc-linux-gnu"

%struct.RVMapDesc = type { i8, i8, [256 x i8], [256 x i8] }
%struct.AVCodecContext = type { ptr, i32, i32, ptr, i32, i32, ptr, ptr, ptr, i64, i32, i32, ptr, i32, %struct.AVRational, %struct.AVRational, %struct.AVRational, i32, i32, i32, i32, i32, %struct.AVRational, i32, i32, i32, i32, i32, i32, i32, i32, i32, i32, i32, ptr, ptr, i32, float, float, float, float, float, float, float, float, float, i32, i32, i32, i32, i32, i32, i32, i32, i32, i32, i32, i32, ptr, ptr, ptr, i32, i32, i32, i32, i32, i32, i32, i32, i32, i32, %struct.AVChannelLayout, i32, i32, i32, i32, i32, i32, i32, i32, ptr, i32, i32, i32, float, float, i32, i32, i32, i32, i32, ptr, i64, i64, float, float, i32, i32, ptr, ptr, i32, i32, i32, i32, i32, ptr, ptr, ptr, ptr, i32, i32, [8 x i64], i32, i32, i32, i32, i32, i32, i32, ptr, ptr, i32, i32, i32, i32, i32, i32, i32, i32, i32, i32, ptr, ptr, i32, i32, ptr, ptr, ptr, ptr, i32, i32, i64, i32, i32, i64, ptr, i64, ptr, i32, ptr, i32 }
%struct.AVRational = type { i32, i32 }
%struct.AVChannelLayout = type { i32, i32, %union.anon.0, ptr }
%union.anon.0 = type { i64 }
%struct.IVI45DecContext = type { %struct.GetBitContext, [9 x %struct.RVMapDesc], i32, i32, i32, i32, i32, ptr, i32, i32, i32, i8, i16, %struct.IVIPicConfig, [3 x %struct.IVIPlaneDesc], i32, i32, i32, i32, i32, %struct.IVIHuffTab, %struct.IVIHuffTab, i8, i8, i8, i8, i8, i16, i8, i32, i32, i8, i8, i8, i8, i8, ptr, ptr, ptr, ptr, ptr, i32, [4 x i32], i32, ptr, i32 }
%struct.GetBitContext = type { ptr, ptr, i32, i32, i32 }
%struct.IVIPicConfig = type { i16, i16, i16, i16, i16, i16, i8, i8 }
%struct.IVIPlaneDesc = type { i16, i16, i8, ptr }
%struct.IVIHuffTab = type { i32, ptr, %struct.IVIHuffDesc, %struct.VLC }
%struct.IVIHuffDesc = type { i32, [16 x i8] }
%struct.VLC = type { i32, ptr, i32, i32 }

@ff_ivi_rvmap_tabs = external constant [9 x %struct.RVMapDesc], align 16
@.str.2 = private unnamed_addr constant [33 x i8] c"Couldn't allocate color planes!\0A\00", align 1

; Function Attrs: cold nounwind optsize uwtable
define internal i32 @decode_init(ptr noundef %0) #0 {
  %2 = alloca i32, align 4
  %3 = alloca ptr, align 8
  %4 = alloca ptr, align 8
  %5 = alloca i32, align 4
  %6 = alloca i32, align 4
  store ptr %0, ptr %3, align 8, !tbaa !4
  call void @llvm.lifetime.start.p0(i64 8, ptr %4) #8
  %7 = load ptr, ptr %3, align 8, !tbaa !4
  %8 = getelementptr inbounds nuw %struct.AVCodecContext, ptr %7, i32 0, i32 6
  %9 = load ptr, ptr %8, align 8, !tbaa !9
  store ptr %9, ptr %4, align 8, !tbaa !29
  call void @llvm.lifetime.start.p0(i64 4, ptr %5) #8
  %10 = load ptr, ptr %4, align 8, !tbaa !29
  %11 = getelementptr inbounds nuw %struct.IVI45DecContext, ptr %10, i32 0, i32 41
  store i32 1, ptr %11, align 8, !tbaa !31
  call void @ff_ivi_init_static_vlc()
  %12 = load ptr, ptr %4, align 8, !tbaa !29
  %13 = getelementptr inbounds nuw %struct.IVI45DecContext, ptr %12, i32 0, i32 1
  %14 = getelementptr inbounds [9 x %struct.RVMapDesc], ptr %13, i64 0, i64 0
  call void @llvm.memcpy.p0.p0.i64(ptr align 8 %14, ptr align 16 @ff_ivi_rvmap_tabs, i64 4626, i1 false)
  %15 = load ptr, ptr %3, align 8, !tbaa !4
  %16 = getelementptr inbounds nuw %struct.AVCodecContext, ptr %15, i32 0, i32 18
  %17 = load i32, ptr %16, align 8, !tbaa !42
  %18 = trunc i32 %17 to i16
  %19 = load ptr, ptr %4, align 8, !tbaa !29
  %20 = getelementptr inbounds nuw %struct.IVI45DecContext, ptr %19, i32 0, i32 13
  %21 = getelementptr inbounds nuw %struct.IVIPicConfig, ptr %20, i32 0, i32 0
  store i16 %18, ptr %21, align 8, !tbaa !43
  %22 = load ptr, ptr %3, align 8, !tbaa !4
  %23 = getelementptr inbounds nuw %struct.AVCodecContext, ptr %22, i32 0, i32 19
  %24 = load i32, ptr %23, align 4, !tbaa !44
  %25 = trunc i32 %24 to i16
  %26 = load ptr, ptr %4, align 8, !tbaa !29
  %27 = getelementptr inbounds nuw %struct.IVI45DecContext, ptr %26, i32 0, i32 13
  %28 = getelementptr inbounds nuw %struct.IVIPicConfig, ptr %27, i32 0, i32 1
  store i16 %25, ptr %28, align 2, !tbaa !45
  %29 = load ptr, ptr %3, align 8, !tbaa !4
  %30 = getelementptr inbounds nuw %struct.AVCodecContext, ptr %29, i32 0, i32 18
  %31 = load i32, ptr %30, align 8, !tbaa !42
  %32 = add nsw i32 %31, 3
  %33 = ashr i32 %32, 2
  %34 = trunc i32 %33 to i16
  %35 = load ptr, ptr %4, align 8, !tbaa !29
  %36 = getelementptr inbounds nuw %struct.IVI45DecContext, ptr %35, i32 0, i32 13
  %37 = getelementptr inbounds nuw %struct.IVIPicConfig, ptr %36, i32 0, i32 2
  store i16 %34, ptr %37, align 4, !tbaa !46
  %38 = load ptr, ptr %3, align 8, !tbaa !4
  %39 = getelementptr inbounds nuw %struct.AVCodecContext, ptr %38, i32 0, i32 19
  %40 = load i32, ptr %39, align 4, !tbaa !44
  %41 = add nsw i32 %40, 3
  %42 = ashr i32 %41, 2
  %43 = trunc i32 %42 to i16
  %44 = load ptr, ptr %4, align 8, !tbaa !29
  %45 = getelementptr inbounds nuw %struct.IVI45DecContext, ptr %44, i32 0, i32 13
  %46 = getelementptr inbounds nuw %struct.IVIPicConfig, ptr %45, i32 0, i32 3
  store i16 %43, ptr %46, align 2, !tbaa !47
  %47 = load ptr, ptr %3, align 8, !tbaa !4
  %48 = getelementptr inbounds nuw %struct.AVCodecContext, ptr %47, i32 0, i32 18
  %49 = load i32, ptr %48, align 8, !tbaa !42
  %50 = trunc i32 %49 to i16
  %51 = load ptr, ptr %4, align 8, !tbaa !29
  %52 = getelementptr inbounds nuw %struct.IVI45DecContext, ptr %51, i32 0, i32 13
  %53 = getelementptr inbounds nuw %struct.IVIPicConfig, ptr %52, i32 0, i32 4
  store i16 %50, ptr %53, align 8, !tbaa !48
  %54 = load ptr, ptr %3, align 8, !tbaa !4
  %55 = getelementptr inbounds nuw %struct.AVCodecContext, ptr %54, i32 0, i32 19
  %56 = load i32, ptr %55, align 4, !tbaa !44
  %57 = trunc i32 %56 to i16
  %58 = load ptr, ptr %4, align 8, !tbaa !29
  %59 = getelementptr inbounds nuw %struct.IVI45DecContext, ptr %58, i32 0, i32 13
  %60 = getelementptr inbounds nuw %struct.IVIPicConfig, ptr %59, i32 0, i32 5
  store i16 %57, ptr %60, align 2, !tbaa !49
  %61 = load ptr, ptr %4, align 8, !tbaa !29
  %62 = getelementptr inbounds nuw %struct.IVI45DecContext, ptr %61, i32 0, i32 13
  %63 = getelementptr inbounds nuw %struct.IVIPicConfig, ptr %62, i32 0, i32 7
  store i8 1, ptr %63, align 1, !tbaa !50
  %64 = load ptr, ptr %4, align 8, !tbaa !29
  %65 = getelementptr inbounds nuw %struct.IVI45DecContext, ptr %64, i32 0, i32 13
  %66 = getelementptr inbounds nuw %struct.IVIPicConfig, ptr %65, i32 0, i32 6
  store i8 1, ptr %66, align 4, !tbaa !51
  %67 = load ptr, ptr %3, align 8, !tbaa !4
  %68 = load ptr, ptr %4, align 8, !tbaa !29
  %69 = getelementptr inbounds nuw %struct.IVI45DecContext, ptr %68, i32 0, i32 14
  %70 = getelementptr inbounds [3 x %struct.IVIPlaneDesc], ptr %69, i64 0, i64 0
  %71 = load ptr, ptr %4, align 8, !tbaa !29
  %72 = getelementptr inbounds nuw %struct.IVI45DecContext, ptr %71, i32 0, i32 13
  %73 = call i32 @ff_ivi_init_planes(ptr noundef %67, ptr noundef %70, ptr noundef %72, i32 noundef 0)
  store i32 %73, ptr %5, align 4, !tbaa !52
  %74 = load i32, ptr %5, align 4, !tbaa !52
  %75 = icmp ne i32 %74, 0
  br i1 %75, label %76, label %78

76:                                               ; preds = %1
  %77 = load ptr, ptr %3, align 8, !tbaa !4
  call void (ptr, i32, ptr, ...) @av_log(ptr noundef %77, i32 noundef 16, ptr noundef @.str.2)
  store i32 -1094995529, ptr %2, align 4
  store i32 1, ptr %6, align 4
  br label %97

78:                                               ; preds = %1
  %79 = load ptr, ptr %4, align 8, !tbaa !29
  %80 = getelementptr inbounds nuw %struct.IVI45DecContext, ptr %79, i32 0, i32 15
  store i32 0, ptr %80, align 8, !tbaa !53
  %81 = load ptr, ptr %4, align 8, !tbaa !29
  %82 = getelementptr inbounds nuw %struct.IVI45DecContext, ptr %81, i32 0, i32 8
  store i32 0, ptr %82, align 8, !tbaa !54
  %83 = load ptr, ptr %4, align 8, !tbaa !29
  %84 = getelementptr inbounds nuw %struct.IVI45DecContext, ptr %83, i32 0, i32 36
  store ptr @decode_pic_hdr, ptr %84, align 8, !tbaa !55
  %85 = load ptr, ptr %4, align 8, !tbaa !29
  %86 = getelementptr inbounds nuw %struct.IVI45DecContext, ptr %85, i32 0, i32 37
  store ptr @decode_band_hdr, ptr %86, align 8, !tbaa !56
  %87 = load ptr, ptr %4, align 8, !tbaa !29
  %88 = getelementptr inbounds nuw %struct.IVI45DecContext, ptr %87, i32 0, i32 38
  store ptr @decode_mb_info, ptr %88, align 8, !tbaa !57
  %89 = load ptr, ptr %4, align 8, !tbaa !29
  %90 = getelementptr inbounds nuw %struct.IVI45DecContext, ptr %89, i32 0, i32 39
  store ptr @switch_buffers, ptr %90, align 8, !tbaa !58
  %91 = load ptr, ptr %4, align 8, !tbaa !29
  %92 = getelementptr inbounds nuw %struct.IVI45DecContext, ptr %91, i32 0, i32 40
  store ptr @is_nonnull_frame, ptr %92, align 8, !tbaa !59
  %93 = load ptr, ptr %4, align 8, !tbaa !29
  %94 = getelementptr inbounds nuw %struct.IVI45DecContext, ptr %93, i32 0, i32 43
  store i32 0, ptr %94, align 4, !tbaa !60
  %95 = load ptr, ptr %3, align 8, !tbaa !4
  %96 = getelementptr inbounds nuw %struct.AVCodecContext, ptr %95, i32 0, i32 23
  store i32 6, ptr %96, align 8, !tbaa !61
  store i32 0, ptr %2, align 4
  store i32 1, ptr %6, align 4
  br label %97

97:                                               ; preds = %78, %76
  call void @llvm.lifetime.end.p0(i64 4, ptr %5) #8
  call void @llvm.lifetime.end.p0(i64 8, ptr %4) #8
  %98 = load i32, ptr %2, align 4
  ret i32 %98
}