; Function Attrs: cold nounwind optsize uwtable
define internal range(i32 -1094995529, 1) i32 @decode_init(ptr noundef %0) #0 {
  %2 = getelementptr inbounds nuw i8, ptr %0, i64 32
  %3 = load ptr, ptr %2, align 8, !tbaa !4
  %4 = getelementptr inbounds nuw i8, ptr %3, i64 4992
  store i32 1, ptr %4, align 8, !tbaa !27
  tail call void @ff_ivi_init_static_vlc() #8
  %5 = getelementptr inbounds nuw i8, ptr %3, i64 32
  tail call void @llvm.memcpy.p0.p0.i64(ptr noundef nonnull align 8 dereferenceable(4626) %5, ptr noundef nonnull align 16 dereferenceable(4626) @ff_ivi_rvmap_tabs, i64 4626, i1 false)
  %6 = getelementptr inbounds nuw i8, ptr %0, i64 112
  %7 = load i32, ptr %6, align 8, !tbaa !38
  %8 = trunc i32 %7 to i16
  %9 = getelementptr inbounds nuw i8, ptr %3, i64 4704
  store i16 %8, ptr %9, align 8, !tbaa !39
  %10 = getelementptr inbounds nuw i8, ptr %0, i64 116
  %11 = load i32, ptr %10, align 4, !tbaa !40
  %12 = trunc i32 %11 to i16
  %13 = getelementptr inbounds nuw i8, ptr %3, i64 4706
  store i16 %12, ptr %13, align 2, !tbaa !41
  %14 = add nsw i32 %7, 3
  %15 = lshr i32 %14, 2
  %16 = trunc i32 %15 to i16
  %17 = getelementptr inbounds nuw i8, ptr %3, i64 4708
  store i16 %16, ptr %17, align 4, !tbaa !42
  %18 = add nsw i32 %11, 3
  %19 = lshr i32 %18, 2
  %20 = trunc i32 %19 to i16
  %21 = getelementptr inbounds nuw i8, ptr %3, i64 4710
  store i16 %20, ptr %21, align 2, !tbaa !43
  %22 = getelementptr inbounds nuw i8, ptr %3, i64 4712
  store i16 %8, ptr %22, align 8, !tbaa !44
  %23 = getelementptr inbounds nuw i8, ptr %3, i64 4714
  store i16 %12, ptr %23, align 2, !tbaa !45
  %24 = getelementptr inbounds nuw i8, ptr %3, i64 4717
  store i8 1, ptr %24, align 1, !tbaa !46
  %25 = getelementptr inbounds nuw i8, ptr %3, i64 4716
  store i8 1, ptr %25, align 4, !tbaa !47
  %26 = getelementptr inbounds nuw i8, ptr %3, i64 4720
  %27 = tail call i32 @ff_ivi_init_planes(ptr noundef %0, ptr noundef nonnull %26, ptr noundef nonnull %9, i32 noundef 0) #8
  %.not = icmp eq i32 %27, 0
  br i1 %.not, label %29, label %28

28:                                               ; preds = %1
  tail call void (ptr, i32, ptr, ...) @av_log(ptr noundef nonnull %0, i32 noundef 16, ptr noundef nonnull @.str.2) #8
  br label %39

29:                                               ; preds = %1
  %30 = getelementptr inbounds nuw i8, ptr %3, i64 4768
  store i32 0, ptr %30, align 8, !tbaa !48
  %31 = getelementptr inbounds nuw i8, ptr %3, i64 4688
  store i32 0, ptr %31, align 8, !tbaa !49
  %32 = getelementptr inbounds nuw i8, ptr %3, i64 4952
  store ptr @decode_pic_hdr, ptr %32, align 8, !tbaa !50
  %33 = getelementptr inbounds nuw i8, ptr %3, i64 4960
  store ptr @decode_band_hdr, ptr %33, align 8, !tbaa !51
  %34 = getelementptr inbounds nuw i8, ptr %3, i64 4968
  store ptr @decode_mb_info, ptr %34, align 8, !tbaa !52
  %35 = getelementptr inbounds nuw i8, ptr %3, i64 4976
  store ptr @switch_buffers, ptr %35, align 8, !tbaa !53
  %36 = getelementptr inbounds nuw i8, ptr %3, i64 4984
  store ptr @is_nonnull_frame, ptr %36, align 8, !tbaa !54
  %37 = getelementptr inbounds nuw i8, ptr %3, i64 5012
  store i32 0, ptr %37, align 4, !tbaa !55
  %38 = getelementptr inbounds nuw i8, ptr %0, i64 136
  store i32 6, ptr %38, align 8, !tbaa !56
  br label %39

39:                                               ; preds = %29, %28
  %.0 = phi i32 [ -1094995529, %28 ], [ 0, %29 ]
  ret i32 %.0
}